(dp1
Vseries
p2
(lp3
(dp4
VmarkLine
p5
(dp6
Vdata
p7
(lp8
(dp9
Vtype
p10
Vaverage
p11
sVname
p12
V\u5e73\u5747\u503c
p13
sassasVtitle
p14
(dp15
Vtext
p16
V\u672a\u6765\u4e00\u5468\u6c14\u6e29\u53d8\u5316
p17
sVsubtext
p18
V\u7eaf\u5c5e\u865a\u6784
p19
ss.